target datalayout = "e-m:e-p270:32:32-p271:32:32-p272:64:64-i64:64-i128:128-f80:128-n8:16:32:64-S128"
target triple = "x86_64-pc-linux-gnu"

%struct.CallReply = type { ptr, ptr, ptr, i64, i32, i32, i64, %union.anon, ptr, ptr }
%union.anon = type { %struct.anon }
%struct.anon = type { ptr, ptr }

; Function Attrs: nounwind uwtable
define internal void @callReplySetSharedData(ptr noundef %0, i32 noundef %1, ptr noundef %2, i64 noundef %3, i32 noundef %4) #0 {
  %6 = alloca ptr, align 8
  %7 = alloca i32, align 4
  %8 = alloca ptr, align 8
  %9 = alloca i64, align 8
  %10 = alloca i32, align 4
  store ptr %0, ptr %6, align 8, !tbaa !5
  store i32 %1, ptr %7, align 4, !tbaa !35
  store ptr %2, ptr %8, align 8, !tbaa !40
  store i64 %3, ptr %9, align 8, !tbaa !19
  store i32 %4, ptr %10, align 4, !tbaa !35
  %11 = load i32, ptr %7, align 4, !tbaa !35
  %12 = load ptr, ptr %6, align 8, !tbaa !5
  %13 = getelementptr inbounds nuw %struct.CallReply, ptr %12, i32 0, i32 4
  store i32 %11, ptr %13, align 8, !tbaa !16
  %14 = load ptr, ptr %8, align 8, !tbaa !40
  %15 = load ptr, ptr %6, align 8, !tbaa !5
  %16 = getelementptr inbounds nuw %struct.CallReply, ptr %15, i32 0, i32 2
  store ptr %14, ptr %16, align 8, !tbaa !28
  %17 = load i64, ptr %9, align 8, !tbaa !19
  %18 = load ptr, ptr %6, align 8, !tbaa !5
  %19 = getelementptr inbounds nuw %struct.CallReply, ptr %18, i32 0, i32 3
  store i64 %17, ptr %19, align 8, !tbaa !41
  %20 = load i32, ptr %10, align 4, !tbaa !35
  %21 = load ptr, ptr %6, align 8, !tbaa !5
  %22 = getelementptr inbounds nuw %struct.CallReply, ptr %21, i32 0, i32 5
  %23 = load i32, ptr %22, align 4, !tbaa !10
  %24 = or i32 %23, %20
  store i32 %24, ptr %22, align 4, !tbaa !10
  ret void
}

; Function Attrs: nounwind uwtable
define internal void @callReplyNullBulkString(ptr noundef %0, ptr noundef %1, i64 noundef %2) #0 {
  %4 = alloca ptr, align 8
  %5 = alloca ptr, align 8
  %6 = alloca i64, align 8
  %7 = alloca ptr, align 8
  store ptr %0, ptr %4, align 8, !tbaa !26
  store ptr %1, ptr %5, align 8, !tbaa !40
  store i64 %2, ptr %6, align 8, !tbaa !19
  call void @llvm.lifetime.start.p0(i64 8, ptr %7) #6
  %8 = load ptr, ptr %4, align 8, !tbaa !26
  store ptr %8, ptr %7, align 8, !tbaa !5
  %9 = load ptr, ptr %7, align 8, !tbaa !5
  %10 = load ptr, ptr %5, align 8, !tbaa !40
  %11 = load i64, ptr %6, align 8, !tbaa !19
  call void @callReplySetSharedData(ptr noundef %9, i32 noundef 4, ptr noundef %10, i64 noundef %11, i32 noundef 0)
  call void @llvm.lifetime.end.p0(i64 8, ptr %7) #6
  ret void
}